; Function Attrs: mustprogress nofree norecurse nosync nounwind willreturn memory(argmem: readwrite) uwtable
define noundef nonnull align 4 dereferenceable(36) ptr @_ZN32pxrInternal_v0_24__pxrReserved__10GfMatrix3f11SetDiagonalERKNS_7GfVec3fE(ptr noundef nonnull returned writeonly align 4 dereferenceable(36) %0, ptr nocapture noundef nonnull readonly align 4 dereferenceable(12) %1) local_unnamed_addr #2 align 2 {
  %3 = load float, ptr %1, align 4
  store float %3, ptr %0, align 4
  %4 = getelementptr inbounds i8, ptr %0, i64 4
  store float 0.000000e+00, ptr %4, align 4
  %5 = getelementptr inbounds i8, ptr %0, i64 8
  store float 0.000000e+00, ptr %5, align 4
  %6 = getelementptr inbounds i8, ptr %0, i64 12
  store float 0.000000e+00, ptr %6, align 4
  %7 = getelementptr inbounds i8, ptr %1, i64 4
  %8 = load float, ptr %7, align 4
  %9 = getelementptr inbounds i8, ptr %0, i64 16
  store float %8, ptr %9, align 4
  %10 = getelementptr inbounds i8, ptr %0, i64 20
  store float 0.000000e+00, ptr %10, align 4
  %11 = getelementptr inbounds i8, ptr %0, i64 24
  store float 0.000000e+00, ptr %11, align 4
  %12 = getelementptr inbounds i8, ptr %0, i64 28
  store float 0.000000e+00, ptr %12, align 4
  %13 = getelementptr inbounds i8, ptr %1, i64 8
  %14 = load float, ptr %13, align 4
  %15 = getelementptr inbounds i8, ptr %0, i64 32
  store float %14, ptr %15, align 4
  ret ptr %0
}